target datalayout = "e-m:e-p270:32:32-p271:32:32-p272:64:64-i64:64-i128:128-f80:128-n8:16:32:64-S128"
target triple = "x86_64-pc-linux-gnu"

%struct.mbedtls_ssl_config = type { i32, i32, i8, i8, i8, i8, i8, i8, i8, i8, i8, i8, i16, i8, i8, i8, ptr, i32, ptr, ptr, ptr, ptr, ptr, ptr, ptr, ptr, ptr, ptr, ptr, ptr, ptr, ptr, ptr, ptr, ptr, ptr, ptr, i64, ptr, ptr, ptr, ptr, ptr, ptr, ptr, ptr, %struct.mbedtls_mpi, %struct.mbedtls_mpi, ptr, i64, ptr, i64, ptr, i32, i32, i32, i32, [8 x i8], i32, i32, %union.mbedtls_ssl_user_data_t, ptr, ptr }
%struct.mbedtls_mpi = type { ptr, i16, i16 }
%union.mbedtls_ssl_user_data_t = type { i64 }
%struct.mbedtls_ssl_context = type { ptr, i32, i32, i32, i32, i32, ptr, ptr, ptr, ptr, ptr, ptr, ptr, ptr, ptr, ptr, ptr, ptr, ptr, ptr, ptr, ptr, ptr, ptr, ptr, ptr, ptr, ptr, ptr, ptr, ptr, ptr, ptr, i32, i64, i64, i16, i64, i64, i64, i64, i32, i32, i8, i8, i32, i8, ptr, ptr, ptr, ptr, ptr, ptr, ptr, i32, i64, i64, [8 x i8], i16, ptr, ptr, ptr, i64, i32, i64, [12 x i8], [12 x i8], [32 x i8], i8, i8, ptr, ptr, %union.mbedtls_ssl_user_data_t }
%struct.mbedtls_md_context_t = type { ptr, ptr, ptr }
%struct.mbedtls_ssl_session = type { i8, i8, i8, i32, i64, i32, i64, [32 x i8], [48 x i8], ptr, i32, ptr, i64, i32, i64, i32, i8, i8, [48 x i8], ptr, i64, i32, %struct.mbedtls_ssl_tls13_application_secrets }
%struct.mbedtls_ssl_tls13_application_secrets = type { [64 x i8], [64 x i8], [64 x i8], [64 x i8] }
%struct.mbedtls_ssl_handshake_params = type { i8, i8, i8, i8, i8, i32, i8, i8, i8, i8, ptr, ptr, ptr, ptr, ptr, i8, i8, i8, i8, i16, i16, [20 x i16], ptr, ptr, %struct.mbedtls_dhm_context, %struct.mbedtls_ecdh_context, i16, i64, i32, i8, [1024 x i8], i64, ptr, ptr, i64, i16, ptr, ptr, ptr, ptr, %struct.anon, ptr, i16, i8, i32, i32, i32, ptr, ptr, ptr, i32, ptr, [8 x i8], i8, [32 x i8], i8, i16, %struct.mbedtls_md_context_t, %struct.mbedtls_md_context_t, i16, i8, %union.anon.1, [64 x i8], [1076 x i8], i64, i32, i32, i8, ptr, ptr, %union.anon.4, %struct.mbedtls_ssl_tls13_handshake_secrets, ptr, i64, ptr }
%struct.mbedtls_dhm_context = type { %struct.mbedtls_mpi, %struct.mbedtls_mpi, %struct.mbedtls_mpi, %struct.mbedtls_mpi, %struct.mbedtls_mpi, %struct.mbedtls_mpi, %struct.mbedtls_mpi, %struct.mbedtls_mpi, %struct.mbedtls_mpi, %struct.mbedtls_mpi }
%struct.mbedtls_ecdh_context = type { i8, i32, i32, %union.anon }
%union.anon = type { %struct.mbedtls_ecdh_context_mbed }
%struct.mbedtls_ecdh_context_mbed = type { %struct.mbedtls_ecp_group, %struct.mbedtls_mpi, %struct.mbedtls_ecp_point, %struct.mbedtls_ecp_point, %struct.mbedtls_mpi }
%struct.mbedtls_ecp_group = type { i32, %struct.mbedtls_mpi, %struct.mbedtls_mpi, %struct.mbedtls_mpi, %struct.mbedtls_ecp_point, %struct.mbedtls_mpi, i64, i64, i32, ptr, ptr, ptr, ptr, ptr, i64 }
%struct.mbedtls_ecp_point = type { %struct.mbedtls_mpi, %struct.mbedtls_mpi, %struct.mbedtls_mpi }
%struct.anon = type { i64, i8, [4 x %struct.mbedtls_ssl_hs_buffer], %struct.anon.0 }
%struct.mbedtls_ssl_hs_buffer = type { i8, ptr, i64 }
%struct.anon.0 = type { ptr, i64, i32 }
%union.anon.1 = type { %struct.anon.2 }
%struct.anon.2 = type { i8, [64 x i8], i64 }
%union.anon.4 = type { [64 x i8] }
%struct.mbedtls_ssl_tls13_handshake_secrets = type { [64 x i8], [64 x i8] }

@.str = private unnamed_addr constant [121 x i8] c"generated/home/dtcxzyw/WorkSpace/Projects/compilers/llvm-opt-benchmark/bench/lief/bench_build/mbed_src/library/ssl_tls.c\00", align 1
@.str.71 = private unnamed_addr constant [20 x i8] c"=> handshake wrapup\00", align 1
@.str.72 = private unnamed_addr constant [28 x i8] c"cache did not store session\00", align 1
@.str.73 = private unnamed_addr constant [37 x i8] c"skip freeing handshake and transform\00", align 1
@.str.74 = private unnamed_addr constant [20 x i8] c"<= handshake wrapup\00", align 1

; Function Attrs: nounwind uwtable
define internal void @ssl_clear_peer_cert(ptr noundef %0) #0 {
  %2 = alloca ptr, align 8
  store ptr %0, ptr %2, align 8, !tbaa !50
  %3 = load ptr, ptr %2, align 8, !tbaa !50
  %4 = getelementptr inbounds nuw %struct.mbedtls_ssl_session, ptr %3, i32 0, i32 9
  %5 = load ptr, ptr %4, align 8, !tbaa !55
  %6 = icmp ne ptr %5, null
  br i1 %6, label %7, label %16

7:                                                ; preds = %1
  %8 = load ptr, ptr %2, align 8, !tbaa !50
  %9 = getelementptr inbounds nuw %struct.mbedtls_ssl_session, ptr %8, i32 0, i32 9
  %10 = load ptr, ptr %9, align 8, !tbaa !55
  call void @mbedtls_x509_crt_free(ptr noundef %10)
  %11 = load ptr, ptr %2, align 8, !tbaa !50
  %12 = getelementptr inbounds nuw %struct.mbedtls_ssl_session, ptr %11, i32 0, i32 9
  %13 = load ptr, ptr %12, align 8, !tbaa !55
  call void @free(ptr noundef %13) #11
  %14 = load ptr, ptr %2, align 8, !tbaa !50
  %15 = getelementptr inbounds nuw %struct.mbedtls_ssl_session, ptr %14, i32 0, i32 9
  store ptr null, ptr %15, align 8, !tbaa !55
  br label %16

16:                                               ; preds = %7, %1
  ret void
}

; Function Attrs: nounwind uwtable
define hidden void @mbedtls_ssl_session_free(ptr noundef %0) #0 {
  %2 = alloca ptr, align 8
  store ptr %0, ptr %2, align 8, !tbaa !50
  %3 = load ptr, ptr %2, align 8, !tbaa !50
  %4 = icmp eq ptr %3, null
  br i1 %4, label %5, label %6

5:                                                ; preds = %1
  br label %15

6:                                                ; preds = %1
  %7 = load ptr, ptr %2, align 8, !tbaa !50
  call void @ssl_clear_peer_cert(ptr noundef %7)
  %8 = load ptr, ptr %2, align 8, !tbaa !50
  %9 = getelementptr inbounds nuw %struct.mbedtls_ssl_session, ptr %8, i32 0, i32 19
  %10 = load ptr, ptr %9, align 8, !tbaa !54
  call void @free(ptr noundef %10) #11
  %11 = load ptr, ptr %2, align 8, !tbaa !50
  %12 = getelementptr inbounds nuw %struct.mbedtls_ssl_session, ptr %11, i32 0, i32 11
  %13 = load ptr, ptr %12, align 8, !tbaa !51
  call void @free(ptr noundef %13) #11
  %14 = load ptr, ptr %2, align 8, !tbaa !50
  call void @mbedtls_platform_zeroize(ptr noundef %14, i64 noundef 496)
  br label %15

15:                                               ; preds = %6, %5
  ret void
}

; Function Attrs: nounwind uwtable
define hidden void @mbedtls_ssl_handshake_wrapup(ptr noundef %0) #0 {
  %2 = alloca ptr, align 8
  %3 = alloca i32, align 4
  store ptr %0, ptr %2, align 8, !tbaa !27
  call void @llvm.lifetime.start.p0(i64 4, ptr %3) #11
  %4 = load ptr, ptr %2, align 8, !tbaa !27
  %5 = getelementptr inbounds nuw %struct.mbedtls_ssl_context, ptr %4, i32 0, i32 16
  %6 = load ptr, ptr %5, align 8, !tbaa !78
  %7 = getelementptr inbounds nuw %struct.mbedtls_ssl_handshake_params, ptr %6, i32 0, i32 0
  %8 = load i8, ptr %7, align 8, !tbaa !174
  %9 = zext i8 %8 to i32
  store i32 %9, ptr %3, align 4, !tbaa !10
  %10 = load ptr, ptr %2, align 8, !tbaa !27
  call void (ptr, i32, ptr, i32, ptr, ...) @mbedtls_debug_print_msg(ptr noundef %10, i32 noundef 3, ptr noundef @.str, i32 noundef 8245, ptr noundef @.str.71)
  %11 = load ptr, ptr %2, align 8, !tbaa !27
  %12 = getelementptr inbounds nuw %struct.mbedtls_ssl_context, ptr %11, i32 0, i32 2
  %13 = load i32, ptr %12, align 4, !tbaa !141
  %14 = icmp eq i32 %13, 1
  br i1 %14, label %15, label %20

15:                                               ; preds = %1
  %16 = load ptr, ptr %2, align 8, !tbaa !27
  %17 = getelementptr inbounds nuw %struct.mbedtls_ssl_context, ptr %16, i32 0, i32 2
  store i32 2, ptr %17, align 4, !tbaa !141
  %18 = load ptr, ptr %2, align 8, !tbaa !27
  %19 = getelementptr inbounds nuw %struct.mbedtls_ssl_context, ptr %18, i32 0, i32 3
  store i32 0, ptr %19, align 8, !tbaa !142
  br label %20

20:                                               ; preds = %15, %1
  %21 = load ptr, ptr %2, align 8, !tbaa !27
  %22 = getelementptr inbounds nuw %struct.mbedtls_ssl_context, ptr %21, i32 0, i32 14
  %23 = load ptr, ptr %22, align 8, !tbaa !147
  %24 = icmp ne ptr %23, null
  br i1 %24, label %25, label %41

25:                                               ; preds = %20
  %26 = load ptr, ptr %2, align 8, !tbaa !27
  %27 = getelementptr inbounds nuw %struct.mbedtls_ssl_context, ptr %26, i32 0, i32 14
  %28 = load ptr, ptr %27, align 8, !tbaa !147
  %29 = getelementptr inbounds nuw %struct.mbedtls_ssl_session, ptr %28, i32 0, i32 21
  %30 = load i32, ptr %29, align 8, !tbaa !265
  %31 = load ptr, ptr %2, align 8, !tbaa !27
  %32 = getelementptr inbounds nuw %struct.mbedtls_ssl_context, ptr %31, i32 0, i32 15
  %33 = load ptr, ptr %32, align 8, !tbaa !105
  %34 = getelementptr inbounds nuw %struct.mbedtls_ssl_session, ptr %33, i32 0, i32 21
  store i32 %30, ptr %34, align 8, !tbaa !265
  %35 = load ptr, ptr %2, align 8, !tbaa !27
  %36 = getelementptr inbounds nuw %struct.mbedtls_ssl_context, ptr %35, i32 0, i32 14
  %37 = load ptr, ptr %36, align 8, !tbaa !147
  call void @mbedtls_ssl_session_free(ptr noundef %37)
  %38 = load ptr, ptr %2, align 8, !tbaa !27
  %39 = getelementptr inbounds nuw %struct.mbedtls_ssl_context, ptr %38, i32 0, i32 14
  %40 = load ptr, ptr %39, align 8, !tbaa !147
  call void @free(ptr noundef %40) #11
  br label %41

41:                                               ; preds = %25, %20
  %42 = load ptr, ptr %2, align 8, !tbaa !27
  %43 = getelementptr inbounds nuw %struct.mbedtls_ssl_context, ptr %42, i32 0, i32 15
  %44 = load ptr, ptr %43, align 8, !tbaa !105
  %45 = load ptr, ptr %2, align 8, !tbaa !27
  %46 = getelementptr inbounds nuw %struct.mbedtls_ssl_context, ptr %45, i32 0, i32 14
  store ptr %44, ptr %46, align 8, !tbaa !147
  %47 = load ptr, ptr %2, align 8, !tbaa !27
  %48 = getelementptr inbounds nuw %struct.mbedtls_ssl_context, ptr %47, i32 0, i32 15
  store ptr null, ptr %48, align 8, !tbaa !105
  %49 = load ptr, ptr %2, align 8, !tbaa !27
  %50 = getelementptr inbounds nuw %struct.mbedtls_ssl_context, ptr %49, i32 0, i32 0
  %51 = load ptr, ptr %50, align 8, !tbaa !30
  %52 = getelementptr inbounds nuw %struct.mbedtls_ssl_config, ptr %51, i32 0, i32 23
  %53 = load ptr, ptr %52, align 8, !tbaa !173
  %54 = icmp ne ptr %53, null
  br i1 %54, label %55, label %94

55:                                               ; preds = %41
  %56 = load ptr, ptr %2, align 8, !tbaa !27
  %57 = getelementptr inbounds nuw %struct.mbedtls_ssl_context, ptr %56, i32 0, i32 14
  %58 = load ptr, ptr %57, align 8, !tbaa !147
  %59 = getelementptr inbounds nuw %struct.mbedtls_ssl_session, ptr %58, i32 0, i32 6
  %60 = load i64, ptr %59, align 8, !tbaa !308
  %61 = icmp ne i64 %60, 0
  br i1 %61, label %62, label %94

62:                                               ; preds = %55
  %63 = load i32, ptr %3, align 4, !tbaa !10
  %64 = icmp eq i32 %63, 0
  br i1 %64, label %65, label %94

65:                                               ; preds = %62
  %66 = load ptr, ptr %2, align 8, !tbaa !27
  %67 = getelementptr inbounds nuw %struct.mbedtls_ssl_context, ptr %66, i32 0, i32 0
  %68 = load ptr, ptr %67, align 8, !tbaa !30
  %69 = getelementptr inbounds nuw %struct.mbedtls_ssl_config, ptr %68, i32 0, i32 23
  %70 = load ptr, ptr %69, align 8, !tbaa !173
  %71 = load ptr, ptr %2, align 8, !tbaa !27
  %72 = getelementptr inbounds nuw %struct.mbedtls_ssl_context, ptr %71, i32 0, i32 0
  %73 = load ptr, ptr %72, align 8, !tbaa !30
  %74 = getelementptr inbounds nuw %struct.mbedtls_ssl_config, ptr %73, i32 0, i32 24
  %75 = load ptr, ptr %74, align 8, !tbaa !171
  %76 = load ptr, ptr %2, align 8, !tbaa !27
  %77 = getelementptr inbounds nuw %struct.mbedtls_ssl_context, ptr %76, i32 0, i32 14
  %78 = load ptr, ptr %77, align 8, !tbaa !147
  %79 = getelementptr inbounds nuw %struct.mbedtls_ssl_session, ptr %78, i32 0, i32 7
  %80 = getelementptr inbounds [32 x i8], ptr %79, i64 0, i64 0
  %81 = load ptr, ptr %2, align 8, !tbaa !27
  %82 = getelementptr inbounds nuw %struct.mbedtls_ssl_context, ptr %81, i32 0, i32 14
  %83 = load ptr, ptr %82, align 8, !tbaa !147
  %84 = getelementptr inbounds nuw %struct.mbedtls_ssl_session, ptr %83, i32 0, i32 6
  %85 = load i64, ptr %84, align 8, !tbaa !308
  %86 = load ptr, ptr %2, align 8, !tbaa !27
  %87 = getelementptr inbounds nuw %struct.mbedtls_ssl_context, ptr %86, i32 0, i32 14
  %88 = load ptr, ptr %87, align 8, !tbaa !147
  %89 = call i32 %70(ptr noundef %75, ptr noundef %80, i64 noundef %85, ptr noundef %88)
  %90 = icmp ne i32 %89, 0
  br i1 %90, label %91, label %93

91:                                               ; preds = %65
  %92 = load ptr, ptr %2, align 8, !tbaa !27
  call void (ptr, i32, ptr, i32, ptr, ...) @mbedtls_debug_print_msg(ptr noundef %92, i32 noundef 1, ptr noundef @.str, i32 noundef 8280, ptr noundef @.str.72)
  br label %93

93:                                               ; preds = %91, %65
  br label %94

94:                                               ; preds = %93, %62, %55, %41
  %95 = load ptr, ptr %2, align 8, !tbaa !27
  %96 = getelementptr inbounds nuw %struct.mbedtls_ssl_context, ptr %95, i32 0, i32 0
  %97 = load ptr, ptr %96, align 8, !tbaa !30
  %98 = getelementptr inbounds nuw %struct.mbedtls_ssl_config, ptr %97, i32 0, i32 3
  %99 = load i8, ptr %98, align 1, !tbaa !35
  %100 = zext i8 %99 to i32
  %101 = icmp eq i32 %100, 1
  br i1 %101, label %102, label %112

102:                                              ; preds = %94
  %103 = load ptr, ptr %2, align 8, !tbaa !27
  %104 = getelementptr inbounds nuw %struct.mbedtls_ssl_context, ptr %103, i32 0, i32 16
  %105 = load ptr, ptr %104, align 8, !tbaa !78
  %106 = getelementptr inbounds nuw %struct.mbedtls_ssl_handshake_params, ptr %105, i32 0, i32 47
  %107 = load ptr, ptr %106, align 8, !tbaa !256
  %108 = icmp ne ptr %107, null
  br i1 %108, label %109, label %112

109:                                              ; preds = %102
  %110 = load ptr, ptr %2, align 8, !tbaa !27
  call void @mbedtls_ssl_set_timer(ptr noundef %110, i32 noundef 0)
  %111 = load ptr, ptr %2, align 8, !tbaa !27
  call void (ptr, i32, ptr, i32, ptr, ...) @mbedtls_debug_print_msg(ptr noundef %111, i32 noundef 3, ptr noundef @.str, i32 noundef 8292, ptr noundef @.str.73)
  br label %114

112:                                              ; preds = %102, %94
  %113 = load ptr, ptr %2, align 8, !tbaa !27
  call void @mbedtls_ssl_handshake_wrapup_free_hs_transform(ptr noundef %113)
  br label %114

114:                                              ; preds = %112, %109
  %115 = load ptr, ptr %2, align 8, !tbaa !27
  %116 = getelementptr inbounds nuw %struct.mbedtls_ssl_context, ptr %115, i32 0, i32 1
  store i32 27, ptr %116, align 8, !tbaa !49
  %117 = load ptr, ptr %2, align 8, !tbaa !27
  call void (ptr, i32, ptr, i32, ptr, ...) @mbedtls_debug_print_msg(ptr noundef %117, i32 noundef 3, ptr noundef @.str, i32 noundef 8299, ptr noundef @.str.74)
  call void @llvm.lifetime.end.p0(i64 4, ptr %3) #11
  ret void
}