; Function Attrs: nounwind uwtable
define hidden void @mbedtls_ssl_handshake_wrapup(ptr noundef %0) local_unnamed_addr #1 {
  %2 = getelementptr inbounds nuw i8, ptr %0, i64 112
  %3 = load ptr, ptr %2, align 8, !tbaa !70
  %4 = load i8, ptr %3, align 8, !tbaa !152
  tail call void (ptr, i32, ptr, i32, ptr, ...) @mbedtls_debug_print_msg(ptr noundef %0, i32 noundef 3, ptr noundef nonnull @.str, i32 noundef 8245, ptr noundef nonnull @.str.71) #26
  %5 = getelementptr inbounds nuw i8, ptr %0, i64 12
  %6 = load i32, ptr %5, align 4, !tbaa !123
  %7 = icmp eq i32 %6, 1
  br i1 %7, label %8, label %10

8:                                                ; preds = %1
  store i32 2, ptr %5, align 4, !tbaa !123
  %9 = getelementptr inbounds nuw i8, ptr %0, i64 16
  store i32 0, ptr %9, align 8, !tbaa !124
  br label %10

10:                                               ; preds = %8, %1
  %11 = getelementptr inbounds nuw i8, ptr %0, i64 96
  %12 = load ptr, ptr %11, align 8, !tbaa !126
  %.not = icmp eq ptr %12, null
  br i1 %.not, label %28, label %13

13:                                               ; preds = %10
  %14 = getelementptr inbounds nuw i8, ptr %12, i64 232
  %15 = load i32, ptr %14, align 8, !tbaa !218
  %16 = getelementptr inbounds nuw i8, ptr %0, i64 104
  %17 = load ptr, ptr %16, align 8, !tbaa !88
  %18 = getelementptr inbounds nuw i8, ptr %17, i64 232
  store i32 %15, ptr %18, align 8, !tbaa !218
  %19 = getelementptr inbounds nuw i8, ptr %12, i64 112
  %20 = load ptr, ptr %19, align 8, !tbaa !44
  %.not.i.i = icmp eq ptr %20, null
  br i1 %.not.i.i, label %mbedtls_ssl_session_free.exit, label %21

21:                                               ; preds = %13
  tail call void @mbedtls_x509_crt_free(ptr noundef nonnull %20) #26
  %22 = load ptr, ptr %19, align 8, !tbaa !44
  tail call void @free(ptr noundef %22) #26
  store ptr null, ptr %19, align 8, !tbaa !44
  br label %mbedtls_ssl_session_free.exit

mbedtls_ssl_session_free.exit:                    ; preds = %13, %21
  %23 = getelementptr inbounds nuw i8, ptr %12, i64 216
  %24 = load ptr, ptr %23, align 8, !tbaa !47
  tail call void @free(ptr noundef %24) #26
  %25 = getelementptr inbounds nuw i8, ptr %12, i64 128
  %26 = load ptr, ptr %25, align 8, !tbaa !48
  tail call void @free(ptr noundef %26) #26
  tail call void @mbedtls_platform_zeroize(ptr noundef nonnull %12, i64 noundef 496) #26
  %27 = load ptr, ptr %11, align 8, !tbaa !126
  tail call void @free(ptr noundef %27) #26
  br label %28

28:                                               ; preds = %mbedtls_ssl_session_free.exit, %10
  %29 = getelementptr inbounds nuw i8, ptr %0, i64 104
  %30 = load ptr, ptr %29, align 8, !tbaa !88
  store ptr %30, ptr %11, align 8, !tbaa !126
  store ptr null, ptr %29, align 8, !tbaa !88
  %31 = load ptr, ptr %0, align 8, !tbaa !23
  %32 = getelementptr inbounds nuw i8, ptr %31, i64 80
  %33 = load ptr, ptr %32, align 8, !tbaa !151
  %.not31 = icmp eq ptr %33, null
  br i1 %.not31, label %45, label %34

34:                                               ; preds = %28
  %35 = getelementptr inbounds nuw i8, ptr %30, i64 24
  %36 = load i64, ptr %35, align 8, !tbaa !215
  %37 = icmp ne i64 %36, 0
  %38 = icmp eq i8 %4, 0
  %or.cond = select i1 %37, i1 %38, i1 false
  br i1 %or.cond, label %39, label %45

39:                                               ; preds = %34
  %40 = getelementptr inbounds nuw i8, ptr %31, i64 88
  %41 = load ptr, ptr %40, align 8, !tbaa !149
  %42 = getelementptr inbounds nuw i8, ptr %30, i64 32
  %43 = tail call i32 %33(ptr noundef %41, ptr noundef nonnull %42, i64 noundef %36, ptr noundef nonnull %30) #26
  %.not32 = icmp eq i32 %43, 0
  br i1 %.not32, label %45, label %44

44:                                               ; preds = %39
  tail call void (ptr, i32, ptr, i32, ptr, ...) @mbedtls_debug_print_msg(ptr noundef nonnull %0, i32 noundef 1, ptr noundef nonnull @.str, i32 noundef 8280, ptr noundef nonnull @.str.72) #26
  br label %45

45:                                               ; preds = %39, %44, %34, %28
  %46 = load ptr, ptr %0, align 8, !tbaa !23
  %47 = getelementptr inbounds nuw i8, ptr %46, i64 9
  %48 = load i8, ptr %47, align 1, !tbaa !29
  %49 = icmp eq i8 %48, 1
  br i1 %49, label %50, label %55

50:                                               ; preds = %45
  %51 = load ptr, ptr %2, align 8, !tbaa !70
  %52 = getelementptr inbounds nuw i8, ptr %51, i64 1896
  %53 = load ptr, ptr %52, align 8, !tbaa !233
  %.not33 = icmp eq ptr %53, null
  br i1 %.not33, label %55, label %54

54:                                               ; preds = %50
  tail call void @mbedtls_ssl_set_timer(ptr noundef nonnull %0, i32 noundef 0) #26
  tail call void (ptr, i32, ptr, i32, ptr, ...) @mbedtls_debug_print_msg(ptr noundef nonnull %0, i32 noundef 3, ptr noundef nonnull @.str, i32 noundef 8292, ptr noundef nonnull @.str.73) #26
  br label %56

55:                                               ; preds = %50, %45
  tail call void @mbedtls_ssl_handshake_wrapup_free_hs_transform(ptr noundef nonnull %0)
  br label %56

56:                                               ; preds = %55, %54
  %57 = getelementptr inbounds nuw i8, ptr %0, i64 8
  store i32 27, ptr %57, align 8, !tbaa !34
  tail call void (ptr, i32, ptr, i32, ptr, ...) @mbedtls_debug_print_msg(ptr noundef nonnull %0, i32 noundef 3, ptr noundef nonnull @.str, i32 noundef 8299, ptr noundef nonnull @.str.74) #26
  ret void
}